target datalayout = "e-m:e-p270:32:32-p271:32:32-p272:64:64-i64:64-i128:128-f80:128-n8:16:32:64-S128"
target triple = "x86_64-pc-linux-gnu"

%struct.ma_allocation_callbacks = type { ptr, ptr, ptr, ptr }

; Function Attrs: nounwind uwtable
define internal ptr @ma__malloc_default(i64 noundef %0, ptr noundef %1) #0 {
  %3 = alloca i64, align 8
  %4 = alloca ptr, align 8
  store i64 %0, ptr %3, align 8, !tbaa !12
  store ptr %1, ptr %4, align 8, !tbaa !25
  %5 = load i64, ptr %3, align 8, !tbaa !12
  %6 = call noalias ptr @malloc(i64 noundef %5) #24
  ret ptr %6
}

; Function Attrs: alwaysinline nounwind uwtable
define internal void @ma_zero_memory_default(ptr noundef %0, i64 noundef %1) #7 {
  %3 = alloca ptr, align 8
  %4 = alloca i64, align 8
  store ptr %0, ptr %3, align 8, !tbaa !25
  store i64 %1, ptr %4, align 8, !tbaa !12
  %5 = load ptr, ptr %3, align 8, !tbaa !25
  %6 = icmp eq ptr %5, null
  br i1 %6, label %7, label %8

7:                                                ; preds = %2
  br label %14

8:                                                ; preds = %2
  %9 = load i64, ptr %4, align 8, !tbaa !12
  %10 = icmp ugt i64 %9, 0
  br i1 %10, label %11, label %14

11:                                               ; preds = %8
  %12 = load ptr, ptr %3, align 8, !tbaa !25
  %13 = load i64, ptr %4, align 8, !tbaa !12
  call void @llvm.memset.p0.i64(ptr align 1 %12, i8 0, i64 %13, i1 false)
  br label %14

14:                                               ; preds = %7, %11, %8
  ret void
}

; Function Attrs: nounwind uwtable
define ptr @ma_malloc(i64 noundef %0, ptr noundef %1) #0 {
  %3 = alloca ptr, align 8
  %4 = alloca i64, align 8
  %5 = alloca ptr, align 8
  store i64 %0, ptr %4, align 8, !tbaa !12
  store ptr %1, ptr %5, align 8, !tbaa !25
  %6 = load ptr, ptr %5, align 8, !tbaa !25
  %7 = icmp ne ptr %6, null
  br i1 %7, label %8, label %23

8:                                                ; preds = %2
  %9 = load ptr, ptr %5, align 8, !tbaa !25
  %10 = getelementptr inbounds nuw %struct.ma_allocation_callbacks, ptr %9, i32 0, i32 1
  %11 = load ptr, ptr %10, align 8, !tbaa !26
  %12 = icmp ne ptr %11, null
  br i1 %12, label %13, label %22

13:                                               ; preds = %8
  %14 = load ptr, ptr %5, align 8, !tbaa !25
  %15 = getelementptr inbounds nuw %struct.ma_allocation_callbacks, ptr %14, i32 0, i32 1
  %16 = load ptr, ptr %15, align 8, !tbaa !26
  %17 = load i64, ptr %4, align 8, !tbaa !12
  %18 = load ptr, ptr %5, align 8, !tbaa !25
  %19 = getelementptr inbounds nuw %struct.ma_allocation_callbacks, ptr %18, i32 0, i32 0
  %20 = load ptr, ptr %19, align 8, !tbaa !28
  %21 = call ptr %16(i64 noundef %17, ptr noundef %20)
  store ptr %21, ptr %3, align 8
  br label %26

22:                                               ; preds = %8
  store ptr null, ptr %3, align 8
  br label %26

23:                                               ; preds = %2
  %24 = load i64, ptr %4, align 8, !tbaa !12
  %25 = call ptr @ma__malloc_default(i64 noundef %24, ptr noundef null)
  store ptr %25, ptr %3, align 8
  br label %26

26:                                               ; preds = %23, %22, %13
  %27 = load ptr, ptr %3, align 8
  ret ptr %27
}

; Function Attrs: nounwind uwtable
define ptr @ma_calloc(i64 noundef %0, ptr noundef %1) #0 {
  %3 = alloca i64, align 8
  %4 = alloca ptr, align 8
  %5 = alloca ptr, align 8
  store i64 %0, ptr %3, align 8, !tbaa !12
  store ptr %1, ptr %4, align 8, !tbaa !25
  call void @llvm.lifetime.start.p0(i64 8, ptr %5) #16
  %6 = load i64, ptr %3, align 8, !tbaa !12
  %7 = load ptr, ptr %4, align 8, !tbaa !25
  %8 = call ptr @ma_malloc(i64 noundef %6, ptr noundef %7)
  store ptr %8, ptr %5, align 8, !tbaa !25
  %9 = load ptr, ptr %5, align 8, !tbaa !25
  %10 = icmp ne ptr %9, null
  br i1 %10, label %11, label %14

11:                                               ; preds = %2
  %12 = load ptr, ptr %5, align 8, !tbaa !25
  %13 = load i64, ptr %3, align 8, !tbaa !12
  call void @ma_zero_memory_default(ptr noundef %12, i64 noundef %13)
  br label %14

14:                                               ; preds = %11, %2
  %15 = load ptr, ptr %5, align 8, !tbaa !25
  call void @llvm.lifetime.end.p0(i64 8, ptr %5) #16
  ret ptr %15
}