; Function Attrs: nounwind uwtable
define ptr @ma_calloc(i64 noundef %0, ptr noundef readonly captures(address_is_null) %1) local_unnamed_addr #7 {
  %.not.i = icmp eq ptr %1, null
  br i1 %.not.i, label %9, label %3

3:                                                ; preds = %2
  %4 = getelementptr inbounds nuw i8, ptr %1, i64 8
  %5 = load ptr, ptr %4, align 8, !tbaa !18
  %.not8.i = icmp eq ptr %5, null
  br i1 %.not8.i, label %ma_zero_memory_default.exit, label %6

6:                                                ; preds = %3
  %7 = load ptr, ptr %1, align 8, !tbaa !21
  %8 = tail call ptr %5(i64 noundef %0, ptr noundef %7) #69
  br label %ma_malloc.exit

9:                                                ; preds = %2
  %10 = tail call noalias noundef ptr @malloc(i64 noundef %0) #80
  br label %ma_malloc.exit

ma_malloc.exit:                                   ; preds = %6, %9
  %.0.i = phi ptr [ %8, %6 ], [ %10, %9 ]
  %.not = icmp eq ptr %.0.i, null
  br i1 %.not, label %ma_zero_memory_default.exit, label %11

11:                                               ; preds = %ma_malloc.exit
  %.not8 = icmp eq i64 %0, 0
  br i1 %.not8, label %ma_zero_memory_default.exit, label %12

12:                                               ; preds = %11
  tail call void @llvm.memset.p0.i64(ptr nonnull align 1 %.0.i, i8 0, i64 %0, i1 false)
  br label %ma_zero_memory_default.exit

ma_zero_memory_default.exit:                      ; preds = %3, %12, %11, %ma_malloc.exit
  %.0.i7 = phi ptr [ null, %ma_malloc.exit ], [ %.0.i, %11 ], [ %.0.i, %12 ], [ null, %3 ]
  ret ptr %.0.i7
}